target datalayout = "e-m:e-p270:32:32-p271:32:32-p272:64:64-i64:64-i128:128-f80:128-n8:16:32:64-S128"
target triple = "x86_64-unknown-linux-gnu"

%struct.SCSICommand = type { [16 x i8], i32, i64, i64, i32 }

; Function Attrs: nounwind sspstrong uwtable
define internal i64 @ldq_he_p(ptr noundef %ptr) #0 {
entry:
  %ptr.addr = alloca ptr, align 8
  %r = alloca i64, align 8
  store ptr %ptr, ptr %ptr.addr, align 8
  %0 = load ptr, ptr %ptr.addr, align 8
  call void @llvm.memcpy.p0.p0.i64(ptr align 8 %r, ptr align 1 %0, i64 8, i1 false)
  %1 = load i64, ptr %r, align 8
  ret i64 %1
}

; Function Attrs: nounwind sspstrong uwtable
define internal i32 @ldl_he_p(ptr noundef %ptr) #0 {
entry:
  %ptr.addr = alloca ptr, align 8
  %r = alloca i32, align 4
  store ptr %ptr, ptr %ptr.addr, align 8
  %0 = load ptr, ptr %ptr.addr, align 8
  call void @llvm.memcpy.p0.p0.i64(ptr align 4 %r, ptr align 1 %0, i64 4, i1 false)
  %1 = load i32, ptr %r, align 4
  ret i32 %1
}

; Function Attrs: nounwind sspstrong uwtable
define internal i64 @ldq_be_p(ptr noundef %ptr) #0 {
entry:
  %ptr.addr = alloca ptr, align 8
  store ptr %ptr, ptr %ptr.addr, align 8
  %0 = load ptr, ptr %ptr.addr, align 8
  %call = call i64 @ldq_he_p(ptr noundef %0)
  %1 = call i64 @llvm.bswap.i64(i64 %call)
  ret i64 %1
}

; Function Attrs: nounwind sspstrong uwtable
define internal i32 @ldl_be_p(ptr noundef %ptr) #0 {
entry:
  %ptr.addr = alloca ptr, align 8
  store ptr %ptr, ptr %ptr.addr, align 8
  %0 = load ptr, ptr %ptr.addr, align 8
  %call = call i32 @ldl_he_p(ptr noundef %0)
  %1 = call i32 @llvm.bswap.i32(i32 %call)
  ret i32 %1
}

; Function Attrs: nounwind sspstrong uwtable
define dso_local i64 @scsi_cmd_lba(ptr noundef %cmd) #0 {
entry:
  %cmd.addr = alloca ptr, align 8
  %buf = alloca ptr, align 8
  %lba = alloca i64, align 8
  store ptr %cmd, ptr %cmd.addr, align 8
  %0 = load ptr, ptr %cmd.addr, align 8
  %buf1 = getelementptr inbounds %struct.SCSICommand, ptr %0, i32 0, i32 0
  %arraydecay = getelementptr inbounds [16 x i8], ptr %buf1, i64 0, i64 0
  store ptr %arraydecay, ptr %buf, align 8
  %1 = load ptr, ptr %buf, align 8
  %arrayidx = getelementptr i8, ptr %1, i64 0
  %2 = load i8, ptr %arrayidx, align 1
  %conv = zext i8 %2 to i32
  %shr = ashr i32 %conv, 5
  switch i32 %shr, label %sw.default [
    i32 0, label %sw.bb
    i32 1, label %sw.bb4
    i32 2, label %sw.bb4
    i32 5, label %sw.bb4
    i32 4, label %sw.bb9
  ]

sw.bb:                                            ; preds = %entry
  %3 = load ptr, ptr %buf, align 8
  %arrayidx2 = getelementptr i8, ptr %3, i64 0
  %call = call i32 @ldl_be_p(ptr noundef %arrayidx2)
  %and = and i32 %call, 2097151
  %conv3 = sext i32 %and to i64
  store i64 %conv3, ptr %lba, align 8
  br label %sw.epilog

sw.bb4:                                           ; preds = %entry, %entry, %entry
  %4 = load ptr, ptr %buf, align 8
  %arrayidx5 = getelementptr i8, ptr %4, i64 2
  %call6 = call i32 @ldl_be_p(ptr noundef %arrayidx5)
  %conv7 = sext i32 %call6 to i64
  %and8 = and i64 %conv7, 4294967295
  store i64 %and8, ptr %lba, align 8
  br label %sw.epilog

sw.bb9:                                           ; preds = %entry
  %5 = load ptr, ptr %buf, align 8
  %arrayidx10 = getelementptr i8, ptr %5, i64 2
  %call11 = call i64 @ldq_be_p(ptr noundef %arrayidx10)
  store i64 %call11, ptr %lba, align 8
  br label %sw.epilog

sw.default:                                       ; preds = %entry
  store i64 -1, ptr %lba, align 8
  br label %sw.epilog

sw.epilog:                                        ; preds = %sw.default, %sw.bb9, %sw.bb4, %sw.bb
  %6 = load i64, ptr %lba, align 8
  ret i64 %6
}