; Function Attrs: mustprogress nofree norecurse nosync nounwind sspstrong willreturn memory(argmem: read) uwtable
define dso_local i64 @scsi_cmd_lba(ptr noundef readonly captures(none) %cmd) local_unnamed_addr #0 {
entry:
  %0 = load i8, ptr %cmd, align 1
  %1 = lshr i8 %0, 5
  switch i8 %1, label %sw.epilog [
    i8 0, label %sw.bb
    i8 1, label %sw.bb4
    i8 2, label %sw.bb4
    i8 5, label %sw.bb4
    i8 4, label %sw.bb9
  ]

sw.bb:                                            ; preds = %entry
  %cmd.val = load i32, ptr %cmd, align 1
  %2 = and i32 %cmd.val, -57600
  %and = tail call i32 @llvm.bswap.i32(i32 %2)
  %conv3 = zext nneg i32 %and to i64
  br label %sw.epilog

sw.bb4:                                           ; preds = %entry, %entry, %entry
  %arrayidx5 = getelementptr i8, ptr %cmd, i64 2
  %arrayidx5.val = load i32, ptr %arrayidx5, align 1
  %3 = tail call i32 @llvm.bswap.i32(i32 %arrayidx5.val)
  %conv7 = zext i32 %3 to i64
  br label %sw.epilog

sw.bb9:                                           ; preds = %entry
  %arrayidx10 = getelementptr i8, ptr %cmd, i64 2
  %arrayidx10.val = load i64, ptr %arrayidx10, align 1
  %4 = tail call i64 @llvm.bswap.i64(i64 %arrayidx10.val)
  br label %sw.epilog

sw.epilog:                                        ; preds = %entry, %sw.bb9, %sw.bb4, %sw.bb
  %lba.0 = phi i64 [ %4, %sw.bb9 ], [ %conv7, %sw.bb4 ], [ %conv3, %sw.bb ], [ -1, %entry ]
  ret i64 %lba.0
}